ccollections
defaultdict
p1
(tRp2
I0
(lp3
S'A-2'
p4
aS'A-3'
p5
aS'E-3'
p6
asI1
(lp7
S'A-3'
p8
aS'A-4'
p9
aS'C-4'
p10
asI2
(lp11
S'A-3'
p12
aS'Bb-3'
p13
aS'D-4'
p14
asI3
(lp15
S'A-3'
p16
aS'Bb-3'
p17
aS'D-4'
p18
aS'F-4'
p19
asI4
(lp20
S'A-3'
p21
aS'C#-3'
p22
aS'E-4'
p23
asI5
(lp24
S'A-3'
p25
aS'C#-4'
p26
aS'F#-4'
p27
asI6
(lp28
S'A-3'
p29
aS'C-3'
p30
aS'C-4'
p31
asI7
(lp32
S'A-3'
p33
aS'C-3'
p34
aS'E-4'
p35
asI8
(lp36
S'A-3'
p37
aS'C-4'
p38
aS'D-4'
p39
asI9
(lp40
S'A-3'
p41
aS'C-4'
p42
aS'E-4'
p43
aS'G-3'
p44
asI10
(lp45
S'A-3'
p46
aS'C-4'
p47
aS'E-4'
p48
aS'G-4'
p49
asI11
(lp50
S'A-3'
p51
aS'C-4'
p52
aS'F-3'
p53
asI12
(lp54
S'A-3'
p55
aS'C-4'
p56
aS'F-4'
p57
asI13
(lp58
S'A-3'
p59
aS'C-4'
p60
aS'G-3'
p61
asI14
(lp62
S'A-3'
p63
aS'D-4'
p64
aS'F-4'
p65
asI15
(lp66
S'B-2'
p67
aS'B-4'
p68
aS'D-4'
p69
asI16
(lp70
S'B-2'
p71
aS'D-4'
p72
aS'G#-3'
p73
asI17
(lp74
S'B-2'
p75
aS'F-4'
p76
aS'G#-3'
p77
asI18
(lp78
S'B-3'
p79
aS'B-4'
p80
aS'D-3'
p81
aS'F-4'
p82
asI19
(lp83
S'B-3'
p84
aS'D-4'
p85
aS'E-4'
p86
aS'F#-3'
p87
aS'G-4'
p88
asI20
(lp89
S'B-3'
p90
aS'D-4'
p91
aS'F-4'
p92
asI21
(lp93
S'B-3'
p94
aS'D-4'
p95
aS'G-3'
p96
asI22
(lp97
S'B-3'
p98
aS'D-4'
p99
aS'G-4'
p100
asI23
(lp101
S'B-3'
p102
aS'E-4'
p103
aS'F-3'
p104
asI24
(lp105
S'B-3'
p106
aS'Eb-4'
p107
aS'F-3'
p108
asI25
(lp109
S'B-3'
p110
aS'F-3'
p111
aS'G-2'
p112
asI26
(lp113
S'B-4'
p114
aS'D-4'
p115
aS'F-4'
p116
aS'G-4'
p117
asI27
(lp118
S'B-4'
p119
aS'F-4'
p120
aS'G-4'
p121
asI28
(lp122
S'Bb-2'
p123
aS'E-3'
p124
aS'G-3'
p125
asI29
(lp126
S'Bb-3'
p127
aS'C-3'
p128
aS'E-4'
p129
asI30
(lp130
S'Bb-3'
p131
aS'C-4'
p132
aS'D-4'
p133
aS'G#-3'
p134
aS'G-4'
p135
asI31
(lp136
S'Bb-3'
p137
aS'D-4'
p138
aS'E-3'
p139
asI32
(lp140
S'Bb-3'
p141
aS'D-4'
p142
aS'F-4'
p143
asI33
(lp144
S'Bb-4'
p145
aS'F-4'
p146
aS'G-4'
p147
asI34
(lp148
S'C#-4'
p149
aS'D-3'
p150
aS'F-3'
p151
asI35
(lp152
S'C#-4'
p153
aS'E-4'
p154
aS'G-3'
p155
asI36
(lp156
S'C-4'
p157
aS'D-4'
p158
aS'E-4'
p159
aS'G-3'
p160
asI37
(lp161
S'C-4'
p162
aS'D-4'
p163
aS'F-4'
p164
asI38
(lp165
S'C-4'
p166
aS'F#-3'
p167
aS'F-4'
p168
asI39
(lp169
S'D-4'
p170
aS'F-4'
p171
aS'G#-3'
p172
as.